; Function Attrs: nounwind uwtable
define hidden ptr @mpd_qnew_size(i64 noundef %0) local_unnamed_addr #4 {
  %2 = load i64, ptr @MPD_MINALLOC, align 8, !tbaa !8
  %3 = tail call i64 @llvm.smax.i64(i64 %0, i64 %2)
  %4 = load ptr, ptr @mpd_mallocfunc, align 8, !tbaa !3
  %5 = tail call ptr %4(i64 noundef 48) #9
  %6 = icmp eq ptr %5, null
  br i1 %6, label %19, label %7

7:                                                ; preds = %1
  %8 = icmp ugt i64 %3, 2305843009213693951
  br i1 %8, label %mpd_alloc.exit.thread, label %mpd_alloc.exit

mpd_alloc.exit.thread:                            ; preds = %7
  %9 = getelementptr inbounds nuw i8, ptr %5, i64 40
  store ptr null, ptr %9, align 8, !tbaa !10
  br label %14

mpd_alloc.exit:                                   ; preds = %7
  %umul.value.i = shl nuw i64 %3, 3
  %10 = load ptr, ptr @mpd_mallocfunc, align 8, !tbaa !3
  %11 = tail call ptr %10(i64 noundef %umul.value.i) #9
  %12 = getelementptr inbounds nuw i8, ptr %5, i64 40
  store ptr %11, ptr %12, align 8, !tbaa !10
  %13 = icmp eq ptr %11, null
  br i1 %13, label %14, label %16

14:                                               ; preds = %mpd_alloc.exit.thread, %mpd_alloc.exit
  %15 = load ptr, ptr @mpd_free, align 8, !tbaa !3
  tail call void %15(ptr noundef nonnull %5) #9
  br label %19

16:                                               ; preds = %mpd_alloc.exit
  store i8 0, ptr %5, align 8, !tbaa !13
  %17 = getelementptr inbounds nuw i8, ptr %5, i64 8
  %18 = getelementptr inbounds nuw i8, ptr %5, i64 32
  tail call void @llvm.memset.p0.i64(ptr noundef nonnull align 8 dereferenceable(24) %17, i8 0, i64 24, i1 false)
  store i64 %3, ptr %18, align 8, !tbaa !14
  br label %19

19:                                               ; preds = %1, %16, %14
  %.0 = phi ptr [ null, %14 ], [ %5, %16 ], [ null, %1 ]
  ret ptr %.0
}